CCS PCM C Compiler, Version 5.025, 10889               27-Jun-23 21:04

               Filename:   D:\Projects\Bluetooth_Car_PIC16F887_Rev1.0\Programming\Main_Controller_BlueCar_Rev1.0\main.lst

               ROM used:   223 words (3%)
                           Largest free fragment is 2048
               RAM used:   8 (2%) at main() level
                           12 (3%) worst case
               Stack used: 1 locations
               Stack size: 8

*
0000:  MOVLW  00
0001:  MOVWF  0A
0002:  GOTO   092
0003:  NOP
.................... #include <main.h> 
.................... #include <16F887.h> 
.................... //////////// Standard Header file for the PIC16F887 device //////////////// 
.................... /////////////////////////////////////////////////////////////////////////// 
.................... ////        (C) Copyright 1996, 2013 Custom Computer Services          //// 
.................... //// This source code may only be used by licensed users of the CCS C  //// 
.................... //// compiler.  This source code may only be distributed to other      //// 
.................... //// licensed users of the CCS C compiler.  No other use, reproduction //// 
.................... //// or distribution is permitted without written permission.          //// 
.................... //// Derivative programs created using this software in object code    //// 
.................... //// form are not restricted in any way.                               //// 
.................... /////////////////////////////////////////////////////////////////////////// 
.................... #device PIC16F887 
....................  
.................... #list 
....................  
.................... #device ADC=16 
....................  
.................... #FUSES NOWDT                 	//No Watch Dog Timer 
.................... #FUSES NOBROWNOUT            	//No brownout reset 
.................... #FUSES NOLVP                 	//No low voltage prgming, B3(PIC16) or B5(PIC18) used for I/O 
....................  
.................... #use delay(crystal=4MHz) 
.................... #use rs232(baud=9600,parity=N,xmit=PIN_C6,rcv=PIN_C7,bits=8,stream=PORT1) 
....................  
....................  
....................  
.................... // Khai bao 4 chan PB0, PB1, PB2, PB3, PD2 tuong ung de cap cho L298 la IN1, IN2, IN3, IN4 
.................... #define IN1 PIN_B0  
.................... #define IN2 PIN_B1 
.................... #define IN3 PIN_B2 
.................... #define IN4 PIN_B3 
.................... #define Buzzer PIN_D2 // Khai bao coi buzzer la chan PD2 
....................  
.................... // PIN Metal Sensor: 
.................... // Khai bao cac chan cam bien do kim loai 
.................... #define Sensor_1 PIN_C0  
.................... #define Sensor_2 PIN_C1 
.................... #define Sensor_3 PIN_C3 
....................  
.................... // Variables: 
.................... unsigned int8 recevieData; 
....................  
....................  
.................... void runBuzzer(){ 
....................    output_high(Buzzer); 
....................    delay_ms(150); 
....................    output_low(Buzzer); 
.................... } 
.................... void runForward(){ 
....................    // Xuat tin hieu Digital vao cac chan IN1 va IN2, IN3 va IN4 
....................    // Ham chay toi, hieu dien the giua hai chan IN1 va IN2, IN3 va IN4 phai la 5V. Khi do 2 banh xe se chay toi 
....................    output_high(IN1); 
*
0046:  BSF    03.5
0047:  BCF    06.0
0048:  BCF    03.5
0049:  BSF    06.0
....................    output_low(IN2); 
004A:  BSF    03.5
004B:  BCF    06.1
004C:  BCF    03.5
004D:  BCF    06.1
....................    output_high(IN3); 
004E:  BSF    03.5
004F:  BCF    06.2
0050:  BCF    03.5
0051:  BSF    06.2
....................    output_low(IN4); 
0052:  BSF    03.5
0053:  BCF    06.3
0054:  BCF    03.5
0055:  BCF    06.3
0056:  BCF    0A.3
0057:  BCF    0A.4
0058:  GOTO   0BF (RETURN)
.................... } 
.................... void runBackward(){ 
....................    // Ham chay toi, hieu dien the giua hai chan IN1 va IN2, IN3 va IN4 phai la -5V. Khi do 2 banh xe se chay lui 
....................    output_low(IN1); 
0059:  BSF    03.5
005A:  BCF    06.0
005B:  BCF    03.5
005C:  BCF    06.0
....................    output_high(IN2); 
005D:  BSF    03.5
005E:  BCF    06.1
005F:  BCF    03.5
0060:  BSF    06.1
....................    output_low(IN3); 
0061:  BSF    03.5
0062:  BCF    06.2
0063:  BCF    03.5
0064:  BCF    06.2
....................    output_high(IN4); 
0065:  BSF    03.5
0066:  BCF    06.3
0067:  BCF    03.5
0068:  BSF    06.3
0069:  BCF    0A.3
006A:  BCF    0A.4
006B:  GOTO   0C7 (RETURN)
.................... } 
.................... void runRight(){ 
....................    // Tuong tu cac ham o tren, luc nay hieu dien the giua IN1 va IN2 la 5V, IN3 va IN4 la -5V. Khi do hai banh xe se quay nguoc chieu 
....................    output_high(IN3); 
*
007F:  BSF    03.5
0080:  BCF    06.2
0081:  BCF    03.5
0082:  BSF    06.2
....................    output_low(IN4); 
0083:  BSF    03.5
0084:  BCF    06.3
0085:  BCF    03.5
0086:  BCF    06.3
....................    output_low(IN1); 
0087:  BSF    03.5
0088:  BCF    06.0
0089:  BCF    03.5
008A:  BCF    06.0
....................    output_high(IN2); 
008B:  BSF    03.5
008C:  BCF    06.1
008D:  BCF    03.5
008E:  BSF    06.1
008F:  BCF    0A.3
0090:  BCF    0A.4
0091:  GOTO   0D7 (RETURN)
.................... } 
.................... void runLeft(){ 
....................    output_high(IN1); 
*
006C:  BSF    03.5
006D:  BCF    06.0
006E:  BCF    03.5
006F:  BSF    06.0
....................    output_low(IN2); 
0070:  BSF    03.5
0071:  BCF    06.1
0072:  BCF    03.5
0073:  BCF    06.1
....................    output_low(IN3); 
0074:  BSF    03.5
0075:  BCF    06.2
0076:  BCF    03.5
0077:  BCF    06.2
....................    output_high(IN4); 
0078:  BSF    03.5
0079:  BCF    06.3
007A:  BCF    03.5
007B:  BSF    06.3
007C:  BCF    0A.3
007D:  BCF    0A.4
007E:  GOTO   0CF (RETURN)
.................... } 
....................  
.................... void Stop(){ 
....................    // Ham dung lai, xuat tin hieu muc thap (0V) o tat ca cac chan IN1, IN2, IN3, IN4 de dung dong co 
....................    output_low(IN1); 
*
0004:  BSF    03.5
0005:  BCF    06.0
0006:  BCF    03.5
0007:  BCF    06.0
....................    output_low(IN2); 
0008:  BSF    03.5
0009:  BCF    06.1
000A:  BCF    03.5
000B:  BCF    06.1
....................    output_low(IN3); 
000C:  BSF    03.5
000D:  BCF    06.2
000E:  BCF    03.5
000F:  BCF    06.2
....................    output_low(IN4); 
0010:  BSF    03.5
0011:  BCF    06.3
0012:  BCF    03.5
0013:  BCF    06.3
0014:  RETURN
.................... } 
....................  
.................... void checkMetal(){ 
....................    // Ham do kim loai, neu 1 trong 3 cam bien phat hien kim loai thi coi buzzer se keu 
....................    if((input(Sensor_1) == 0) | (input(Sensor_2) == 0) | (input(Sensor_3) == 0)){ 
0015:  BSF    21.0
0016:  MOVF   21,W
0017:  BSF    03.5
0018:  MOVWF  07
0019:  MOVLW  00
001A:  BCF    03.5
001B:  BTFSS  07.0
001C:  MOVLW  01
001D:  MOVWF  24
001E:  BSF    21.1
001F:  MOVF   21,W
0020:  BSF    03.5
0021:  MOVWF  07
0022:  MOVLW  00
0023:  BCF    03.5
0024:  BTFSS  07.1
0025:  MOVLW  01
0026:  IORWF  24,F
0027:  BSF    21.3
0028:  MOVF   21,W
0029:  BSF    03.5
002A:  MOVWF  07
002B:  MOVLW  00
002C:  BCF    03.5
002D:  BTFSS  07.3
002E:  MOVLW  01
002F:  IORWF  24,W
0030:  BTFSC  03.2
0031:  GOTO   03B
....................      output_high(Buzzer); 
0032:  BSF    03.5
0033:  BCF    08.2
0034:  BCF    03.5
0035:  BSF    08.2
....................      putc('1'); 
0036:  MOVLW  31
0037:  BTFSS  0C.4
0038:  GOTO   037
0039:  MOVWF  19
....................    } 
003A:  GOTO   043
....................    else{ 
....................      output_low(Buzzer); 
003B:  BSF    03.5
003C:  BCF    08.2
003D:  BCF    03.5
003E:  BCF    08.2
....................      putc('0'); 
003F:  MOVLW  30
0040:  BTFSS  0C.4
0041:  GOTO   040
0042:  MOVWF  19
....................    } 
0043:  BCF    0A.3
0044:  BCF    0A.4
0045:  GOTO   0BC (RETURN)
.................... } 
....................  
.................... unsigned int8 sysState = 0; 
.................... void main() 
*
0092:  MOVF   03,W
0093:  ANDLW  1F
0094:  MOVWF  03
0095:  BSF    03.5
0096:  BSF    03.6
0097:  BCF    07.3
0098:  MOVLW  19
0099:  BCF    03.6
009A:  MOVWF  19
009B:  MOVLW  A6
009C:  MOVWF  18
009D:  MOVLW  90
009E:  BCF    03.5
009F:  MOVWF  18
00A0:  MOVLW  FF
00A1:  MOVWF  21
00A2:  CLRF   22
00A3:  BSF    03.5
00A4:  BSF    03.6
00A5:  MOVF   09,W
00A6:  ANDLW  C0
00A7:  MOVWF  09
00A8:  BCF    03.6
00A9:  BCF    1F.4
00AA:  BCF    1F.5
00AB:  MOVLW  00
00AC:  BSF    03.6
00AD:  MOVWF  08
00AE:  BCF    03.5
00AF:  CLRF   07
00B0:  CLRF   08
00B1:  CLRF   09
00B2:  BCF    03.7
.................... { 
....................    Stop(); 
00B3:  BCF    03.6
00B4:  CALL   004
....................    while(TRUE) 
....................    { 
....................       recevieData = getch(); // Nhan du lieu tu board Bluetooth luu vao bien recevieData, tin hieu duoc gui tu Remote Controller. 
00B5:  BTFSS  0C.5
00B6:  GOTO   0B5
00B7:  MOVF   1A,W
00B8:  MOVWF  20
....................       recevieData = recevieData - 48; // Chuyen doi tu kieu so trong bang ma ASCII sang kieu so nguyen. 
00B9:  MOVLW  30
00BA:  SUBWF  20,F
....................       checkMetal(); 
00BB:  GOTO   015
....................        
....................       // Dua vao bien recevieData se dieu khien xe chay voi truong hop tuong ung. 
....................       if(recevieData == 1){  
00BC:  DECFSZ 20,W
00BD:  GOTO   0C2
....................          runForward(); 
00BE:  GOTO   046
....................          sysState = 1; 
00BF:  MOVLW  01
00C0:  MOVWF  22
....................       } 
00C1:  GOTO   0DD
....................       else if(recevieData == 2){ 
00C2:  MOVF   20,W
00C3:  SUBLW  02
00C4:  BTFSS  03.2
00C5:  GOTO   0CA
....................          runBackward(); 
00C6:  GOTO   059
....................          sysState = 1; 
00C7:  MOVLW  01
00C8:  MOVWF  22
....................       } 
00C9:  GOTO   0DD
....................       else if(recevieData == 3){ 
00CA:  MOVF   20,W
00CB:  SUBLW  03
00CC:  BTFSS  03.2
00CD:  GOTO   0D2
....................          runLeft(); 
00CE:  GOTO   06C
....................          sysState = 1; 
00CF:  MOVLW  01
00D0:  MOVWF  22
....................       } 
00D1:  GOTO   0DD
....................       else if(recevieData == 4){ 
00D2:  MOVF   20,W
00D3:  SUBLW  04
00D4:  BTFSS  03.2
00D5:  GOTO   0DA
....................          runRight(); 
00D6:  GOTO   07F
....................          sysState = 1; 
00D7:  MOVLW  01
00D8:  MOVWF  22
....................       } 
00D9:  GOTO   0DD
....................       else{ 
....................          Stop(); 
00DA:  CALL   004
....................          sysState = 1; 
00DB:  MOVLW  01
00DC:  MOVWF  22
....................       } 
00DD:  GOTO   0B5
....................        
....................    } 
.................... } 
00DE:  SLEEP

Configuration Fuses:
   Word  1: 2CE1   XT NOWDT PUT MCLR NOPROTECT NOCPD NOBROWNOUT IESO FCMEN NOLVP NODEBUG
   Word  2: 3FFF   BORV40 NOWRT
